target datalayout = "e-m:e-p270:32:32-p271:32:32-p272:64:64-i64:64-i128:128-f80:128-n8:16:32:64-S128"
target triple = "x86_64-pc-linux-gnu"

%"class.sls::bvect" = type <{ %class.svector, i32, i32, i32, [4 x i8] }>
%class.svector = type { %class.vector }
%class.vector = type { ptr }
%"class.sls::bv_valuation" = type { %"class.sls::bvect", %"class.sls::bvect", %"class.sls::bvect", %"class.sls::bvect", %"class.sls::bvect", %"class.sls::bvect", i32, i32, i32, i32, %"class.sls::bvect" }

; Function Attrs: mustprogress nounwind uwtable
define hidden void @_ZN3sls12bv_valuation6set_bwEj(ptr noundef nonnull align 8 dereferenceable(184) %0, i32 noundef %1) #5 align 2 {
  %3 = alloca ptr, align 8
  %4 = alloca i32, align 4
  store ptr %0, ptr %3, align 8, !tbaa !53
  store i32 %1, ptr %4, align 4, !tbaa !8
  %5 = load ptr, ptr %3, align 8
  %6 = load i32, ptr %4, align 4, !tbaa !8
  %7 = getelementptr inbounds nuw %"class.sls::bv_valuation", ptr %5, i32 0, i32 8
  store i32 %6, ptr %7, align 8, !tbaa !60
  %8 = getelementptr inbounds nuw %"class.sls::bv_valuation", ptr %5, i32 0, i32 8
  %9 = load i32, ptr %8, align 8, !tbaa !60
  %10 = zext i32 %9 to i64
  %11 = add i64 %10, 32
  %12 = sub i64 %11, 1
  %13 = udiv i64 %12, 32
  %14 = trunc i64 %13 to i32
  %15 = getelementptr inbounds nuw %"class.sls::bv_valuation", ptr %5, i32 0, i32 9
  store i32 %14, ptr %15, align 4, !tbaa !57
  %16 = getelementptr inbounds nuw %"class.sls::bv_valuation", ptr %5, i32 0, i32 8
  %17 = load i32, ptr %16, align 8, !tbaa !60
  %18 = zext i32 %17 to i64
  %19 = urem i64 %18, 32
  %20 = trunc i64 %19 to i32
  %21 = shl i32 1, %20
  %22 = sub nsw i32 %21, 1
  %23 = getelementptr inbounds nuw %"class.sls::bv_valuation", ptr %5, i32 0, i32 7
  store i32 %22, ptr %23, align 4, !tbaa !59
  %24 = getelementptr inbounds nuw %"class.sls::bv_valuation", ptr %5, i32 0, i32 7
  %25 = load i32, ptr %24, align 4, !tbaa !59
  %26 = icmp eq i32 %25, 0
  br i1 %26, label %27, label %29

27:                                               ; preds = %2
  %28 = getelementptr inbounds nuw %"class.sls::bv_valuation", ptr %5, i32 0, i32 7
  store i32 -1, ptr %28, align 4, !tbaa !59
  br label %29

29:                                               ; preds = %27, %2
  ret void
}