; Function Attrs: mustprogress nofree norecurse nosync nounwind willreturn memory(argmem: write) uwtable
define hidden void @_ZN3sls12bv_valuation6set_bwEj(ptr noundef nonnull writeonly align 8 captures(none) dereferenceable(184) initializes((148, 160)) %0, i32 noundef %1) local_unnamed_addr #9 align 2 {
  %3 = getelementptr inbounds nuw i8, ptr %0, i64 152
  store i32 %1, ptr %3, align 8, !tbaa !67
  %4 = zext i32 %1 to i64
  %5 = add nuw nsw i64 %4, 31
  %6 = lshr i64 %5, 5
  %7 = trunc nuw nsw i64 %6 to i32
  %8 = getelementptr inbounds nuw i8, ptr %0, i64 156
  store i32 %7, ptr %8, align 4, !tbaa !68
  %9 = and i32 %1, 31
  %notmask = shl nsw i32 -1, %9
  %10 = xor i32 %notmask, -1
  %11 = icmp eq i32 %9, 0
  %spec.select = select i1 %11, i32 -1, i32 %10
  %12 = getelementptr inbounds nuw i8, ptr %0, i64 148
  store i32 %spec.select, ptr %12, align 4, !tbaa !69
  ret void
}